target datalayout = "e-m:e-p270:32:32-p271:32:32-p272:64:64-i64:64-i128:128-f80:128-n8:16:32:64-S128"
target triple = "x86_64-pc-linux-gnu"

%struct.anon = type { i64, i64 }
%class.ZSafePageRecycle = type { ptr, %class.ZActivatedArray }
%class.ZActivatedArray = type { ptr, i64, %class.GrowableArrayCHeap }
%class.GrowableArrayCHeap = type { %class.GrowableArrayWithAllocator }
%class.GrowableArrayWithAllocator = type { %class.GrowableArrayView }
%class.GrowableArrayView = type { %class.GrowableArrayBase, ptr }
%class.GrowableArrayBase = type { i32, i32 }
%class.ZPage = type { i8, i8, i8, i8, i32, i32, %class.ZVirtualMemory, i64, %class.ZLiveMap, %class.ZRememberedSet, i64, %class.ZPhysicalMemory, %class.ZListNode }
%class.ZVirtualMemory = type { i64, i64 }
%class.ZLiveMap = type { i32, i32, i64, i64, i64, %class.ZBitMap, i64 }
%class.ZBitMap = type { %class.CHeapBitMap.base, [7 x i8] }
%class.CHeapBitMap.base = type <{ %class.GrowableBitMap, i8 }>
%class.GrowableBitMap = type { %class.BitMap }
%class.BitMap = type { ptr, i64 }
%class.ZRememberedSet = type { [2 x %class.ZMovableBitMap] }
%class.ZMovableBitMap = type { %class.CHeapBitMap.base, [7 x i8] }
%class.ZPhysicalMemory = type { %class.GrowableArrayCHeap.1 }
%class.GrowableArrayCHeap.1 = type { %class.GrowableArrayWithAllocator.2 }
%class.GrowableArrayWithAllocator.2 = type { %class.GrowableArrayView.3 }
%class.GrowableArrayView.3 = type { %class.GrowableArrayBase, ptr }
%class.ZListNode = type { ptr, ptr }
%class.ZPageAllocator = type <{ %class.ZLock, %class.ZPageCache, %class.ZVirtualMemoryManager, %class.ZPhysicalMemoryManager, i64, i64, i64, i64, i64, i64, i64, [2 x i64], [2 x %struct.anon], %class.ZList.7, ptr, ptr, %class.ZSafeDelete, %class.ZSafePageRecycle, i8, [7 x i8] }>
%class.ZLock = type { %class.PlatformMutex }
%class.PlatformMutex = type { %union.pthread_mutex_t }
%union.pthread_mutex_t = type { %struct.__pthread_mutex_s }
%struct.__pthread_mutex_s = type { i32, i32, i32, i32, i32, i16, i16, %struct.__pthread_internal_list }
%struct.__pthread_internal_list = type { ptr, ptr }
%class.ZPageCache = type { %class.ZValue, %class.ZList, %class.ZList, i64 }
%class.ZValue = type { i64 }
%class.ZList = type { %class.ZListNode, i64 }
%class.ZVirtualMemoryManager = type <{ %class.ZMemoryManager, i64, i8, [7 x i8] }>
%class.ZMemoryManager = type { %class.ZLock, %class.ZList.5, %"struct.ZMemoryManager::Callbacks" }
%class.ZList.5 = type { %class.ZListNode.6, i64 }
%class.ZListNode.6 = type { ptr, ptr }
%"struct.ZMemoryManager::Callbacks" = type { ptr, ptr, ptr, ptr, ptr, ptr }
%class.ZPhysicalMemoryManager = type { %class.ZPhysicalMemoryBacking, %class.ZMemoryManager }
%class.ZPhysicalMemoryBacking = type <{ i32, [4 x i8], i64, i64, i64, i64, i8, [7 x i8] }>
%class.ZList.7 = type { %class.ZListNode.8, i64 }
%class.ZListNode.8 = type { ptr, ptr }
%class.ZSafeDelete = type { %class.ZActivatedArray }

; Function Attrs: mustprogress nounwind uwtable
define linkonce_odr hidden noundef i64 @_ZNK14ZVirtualMemory5startEv(ptr noundef nonnull align 8 dereferenceable(16) %0) #1 comdat align 2 {
  %2 = alloca ptr, align 8
  store ptr %0, ptr %2, align 8
  %3 = load ptr, ptr %2, align 8
  %4 = getelementptr inbounds %class.ZVirtualMemory, ptr %3, i32 0, i32 0
  %5 = load i64, ptr %4, align 8
  ret i64 %5
}

; Function Attrs: mustprogress nounwind uwtable
define linkonce_odr hidden noundef i64 @_ZNK21ZVirtualMemoryManager24lowest_available_addressEv(ptr noundef nonnull align 8 dereferenceable(121) %0) #1 comdat align 2 {
  %2 = alloca ptr, align 8
  store ptr %0, ptr %2, align 8
  %3 = load ptr, ptr %2, align 8
  %4 = getelementptr inbounds %class.ZVirtualMemoryManager, ptr %3, i32 0, i32 0
  %5 = call noundef i64 @_ZNK14ZMemoryManager16peek_low_addressEv(ptr noundef nonnull align 8 dereferenceable(112) %4)
  ret i64 %5
}

; Function Attrs: mustprogress nounwind uwtable
define linkonce_odr hidden noundef i64 @_Z10to_zoffsetm(i64 noundef %0) #1 comdat {
  %2 = alloca i64, align 8
  store i64 %0, ptr %2, align 8
  %3 = load i64, ptr %2, align 8
  ret i64 %3
}

; Function Attrs: mustprogress nounwind uwtable
define linkonce_odr hidden noundef i64 @_ZNK21ZVirtualMemoryManager8reservedEv(ptr noundef nonnull align 8 dereferenceable(121) %0) #1 comdat align 2 {
  %2 = alloca ptr, align 8
  store ptr %0, ptr %2, align 8
  %3 = load ptr, ptr %2, align 8
  %4 = getelementptr inbounds %class.ZVirtualMemoryManager, ptr %3, i32 0, i32 1
  %5 = load i64, ptr %4, align 8
  ret i64 %5
}

; Function Attrs: mustprogress nounwind uwtable
define linkonce_odr hidden noundef i64 @_ZNK5ZPage5startEv(ptr noundef nonnull align 8 dereferenceable(192) %0) #1 comdat align 2 {
  %2 = alloca ptr, align 8
  store ptr %0, ptr %2, align 8
  %3 = load ptr, ptr %2, align 8
  %4 = getelementptr inbounds %class.ZPage, ptr %3, i32 0, i32 6
  %5 = call noundef i64 @_ZNK14ZVirtualMemory5startEv(ptr noundef nonnull align 8 dereferenceable(16) %4)
  ret i64 %5
}

; Function Attrs: mustprogress nounwind uwtable
define linkonce_odr hidden noundef zeroext i8 @_ZNK5ZPage4typeEv(ptr noundef nonnull align 8 dereferenceable(192) %0) #1 comdat align 2 {
  %2 = alloca ptr, align 8
  store ptr %0, ptr %2, align 8
  %3 = load ptr, ptr %2, align 8
  %4 = getelementptr inbounds %class.ZPage, ptr %3, i32 0, i32 0
  %5 = load i8, ptr %4, align 8
  ret i8 %5
}

; Function Attrs: mustprogress nounwind uwtable
define hidden noundef zeroext i1 @_ZNK14ZPageAllocator17should_defragmentEPK5ZPage(ptr noundef nonnull align 8 dereferenceable(609) %0, ptr noundef %1) #1 align 2 {
  %3 = alloca ptr, align 8
  %4 = alloca ptr, align 8
  store ptr %0, ptr %3, align 8
  store ptr %1, ptr %4, align 8
  %5 = load ptr, ptr %3, align 8
  %6 = load ptr, ptr %4, align 8
  %7 = call noundef zeroext i8 @_ZNK5ZPage4typeEv(ptr noundef nonnull align 8 dereferenceable(192) %6)
  %8 = icmp eq i8 %7, 0
  br i1 %8, label %9, label %23

9:                                                ; preds = %2
  %10 = load ptr, ptr %4, align 8
  %11 = call noundef i64 @_ZNK5ZPage5startEv(ptr noundef nonnull align 8 dereferenceable(192) %10)
  %12 = getelementptr inbounds %class.ZPageAllocator, ptr %5, i32 0, i32 2
  %13 = call noundef i64 @_ZNK21ZVirtualMemoryManager8reservedEv(ptr noundef nonnull align 8 dereferenceable(121) %12)
  %14 = udiv i64 %13, 2
  %15 = call noundef i64 @_Z10to_zoffsetm(i64 noundef %14)
  %16 = icmp uge i64 %11, %15
  br i1 %16, label %17, label %23

17:                                               ; preds = %9
  %18 = load ptr, ptr %4, align 8
  %19 = call noundef i64 @_ZNK5ZPage5startEv(ptr noundef nonnull align 8 dereferenceable(192) %18)
  %20 = getelementptr inbounds %class.ZPageAllocator, ptr %5, i32 0, i32 2
  %21 = call noundef i64 @_ZNK21ZVirtualMemoryManager24lowest_available_addressEv(ptr noundef nonnull align 8 dereferenceable(121) %20)
  %22 = icmp ugt i64 %19, %21
  br label %23

23:                                               ; preds = %17, %9, %2
  %24 = phi i1 [ false, %9 ], [ false, %2 ], [ %22, %17 ]
  ret i1 %24
}