; Function Attrs: mustprogress nounwind uwtable
define hidden noundef zeroext i1 @_ZNK14ZPageAllocator17should_defragmentEPK5ZPage(ptr noundef nonnull align 8 dereferenceable(609) %0, ptr nocapture noundef readonly %1) local_unnamed_addr #1 align 2 {
  %3 = load i8, ptr %1, align 8
  %4 = icmp eq i8 %3, 0
  br i1 %4, label %5, label %15

5:                                                ; preds = %2
  %6 = getelementptr inbounds i8, ptr %1, i64 16
  %7 = load i64, ptr %6, align 8
  %8 = getelementptr inbounds i8, ptr %0, i64 216
  %9 = load i64, ptr %8, align 8
  %10 = lshr i64 %9, 1
  %.not = icmp ult i64 %7, %10
  br i1 %.not, label %15, label %11

11:                                               ; preds = %5
  %12 = getelementptr inbounds i8, ptr %0, i64 104
  %13 = tail call noundef i64 @_ZNK14ZMemoryManager16peek_low_addressEv(ptr noundef nonnull align 8 dereferenceable(112) %12) #13
  %14 = icmp ugt i64 %7, %13
  br label %15

15:                                               ; preds = %11, %5, %2
  %16 = phi i1 [ false, %5 ], [ false, %2 ], [ %14, %11 ]
  ret i1 %16
}